target datalayout = "e-m:e-p270:32:32-p271:32:32-p272:64:64-i64:64-i128:128-f80:128-n8:16:32:64-S128"
target triple = "x86_64-pc-linux-gnu"

@.str.93 = private unnamed_addr constant [23 x i8] c"invalid Unicode escape\00", align 1

; Function Attrs: nounwind sspstrong uwtable
define internal i32 @unescape_unicode_bmp(ptr noundef %0, ptr noundef %1, i64 noundef %2, ptr noundef %3, ptr noundef %4) #0 {
  %6 = alloca i32, align 4
  %7 = alloca ptr, align 8
  %8 = alloca ptr, align 8
  %9 = alloca i64, align 8
  %10 = alloca ptr, align 8
  %11 = alloca ptr, align 8
  %12 = alloca ptr, align 8
  %13 = alloca i64, align 8
  %14 = alloca i64, align 8
  %15 = alloca i32, align 4
  store ptr %0, ptr %7, align 8, !tbaa !134
  store ptr %1, ptr %8, align 8, !tbaa !13
  store i64 %2, ptr %9, align 8, !tbaa !11
  store ptr %3, ptr %10, align 8, !tbaa !67
  store ptr %4, ptr %11, align 8, !tbaa !13
  call void @llvm.lifetime.start.p0(i64 8, ptr %12) #28
  %16 = load ptr, ptr %7, align 8, !tbaa !134
  %17 = load ptr, ptr %16, align 8, !tbaa !13
  store ptr %17, ptr %12, align 8, !tbaa !13
  call void @llvm.lifetime.start.p0(i64 8, ptr %13) #28
  call void @llvm.lifetime.start.p0(i64 8, ptr %14) #28
  %18 = load ptr, ptr %8, align 8, !tbaa !13
  %19 = load ptr, ptr %12, align 8, !tbaa !13
  %20 = getelementptr i8, ptr %19, i64 4
  %21 = icmp ult ptr %18, %20
  br i1 %21, label %22, label %25

22:                                               ; preds = %5
  %23 = load ptr, ptr %11, align 8, !tbaa !13
  %24 = call i64 @strlcpy(ptr noundef %23, ptr noundef @.str.93, i64 noundef 90)
  store i32 -1, ptr %6, align 4
  store i32 1, ptr %15, align 4
  br label %45

25:                                               ; preds = %5
  %26 = load ptr, ptr %12, align 8, !tbaa !13
  %27 = call i64 @ruby_scan_hex(ptr noundef %26, i64 noundef 4, ptr noundef %13)
  store i64 %27, ptr %14, align 8, !tbaa !11
  %28 = load i64, ptr %13, align 8, !tbaa !11
  %29 = icmp ne i64 %28, 4
  br i1 %29, label %30, label %33

30:                                               ; preds = %25
  %31 = load ptr, ptr %11, align 8, !tbaa !13
  %32 = call i64 @strlcpy(ptr noundef %31, ptr noundef @.str.93, i64 noundef 90)
  store i32 -1, ptr %6, align 4
  store i32 1, ptr %15, align 4
  br label %45

33:                                               ; preds = %25
  %34 = load i64, ptr %14, align 8, !tbaa !11
  %35 = load i64, ptr %9, align 8, !tbaa !11
  %36 = load ptr, ptr %10, align 8, !tbaa !67
  %37 = load ptr, ptr %11, align 8, !tbaa !13
  %38 = call i32 @append_utf8(i64 noundef %34, i64 noundef %35, ptr noundef %36, ptr noundef %37)
  %39 = icmp ne i32 %38, 0
  br i1 %39, label %40, label %41

40:                                               ; preds = %33
  store i32 -1, ptr %6, align 4
  store i32 1, ptr %15, align 4
  br label %45

41:                                               ; preds = %33
  %42 = load ptr, ptr %12, align 8, !tbaa !13
  %43 = getelementptr i8, ptr %42, i64 4
  %44 = load ptr, ptr %7, align 8, !tbaa !134
  store ptr %43, ptr %44, align 8, !tbaa !13
  store i32 0, ptr %6, align 4
  store i32 1, ptr %15, align 4
  br label %45

45:                                               ; preds = %41, %40, %30, %22
  call void @llvm.lifetime.end.p0(i64 8, ptr %14) #28
  call void @llvm.lifetime.end.p0(i64 8, ptr %13) #28
  call void @llvm.lifetime.end.p0(i64 8, ptr %12) #28
  %46 = load i32, ptr %6, align 4
  ret i32 %46
}