; Function Attrs: nounwind sspstrong uwtable
define internal fastcc range(i32 -1, 1) i32 @unescape_unicode_bmp(ptr noundef nonnull captures(none) %0, ptr noundef readnone captures(address) %1, i64 noundef %2, ptr noundef nonnull captures(none) %3, ptr noundef nonnull writeonly captures(none) %4) unnamed_addr #2 {
  %6 = alloca i64, align 8
  %7 = load ptr, ptr %0, align 8, !tbaa !64
  call void @llvm.lifetime.start.p0(i64 8, ptr nonnull %6) #29
  %8 = getelementptr i8, ptr %7, i64 4
  %9 = icmp ult ptr %1, %8
  br i1 %9, label %10, label %11

10:                                               ; preds = %5
  tail call void @llvm.memcpy.p0.p0.i64(ptr noundef nonnull align 1 dereferenceable(23) %4, ptr noundef nonnull align 1 dereferenceable(23) @.str.93, i64 noundef 23, i1 false) #29
  br label %18

11:                                               ; preds = %5
  %12 = call i64 @ruby_scan_hex(ptr noundef %7, i64 noundef 4, ptr noundef nonnull %6) #29
  %13 = load i64, ptr %6, align 8, !tbaa !18
  %.not = icmp eq i64 %13, 4
  br i1 %.not, label %15, label %14

14:                                               ; preds = %11
  call void @llvm.memcpy.p0.p0.i64(ptr noundef nonnull align 1 dereferenceable(23) %4, ptr noundef nonnull align 1 dereferenceable(23) @.str.93, i64 noundef 23, i1 false) #29
  br label %18

15:                                               ; preds = %11
  %16 = call fastcc i32 @append_utf8(i64 noundef %12, i64 noundef %2, ptr noundef %3, ptr noundef %4)
  %.not13 = icmp eq i32 %16, 0
  br i1 %.not13, label %17, label %18

17:                                               ; preds = %15
  store ptr %8, ptr %0, align 8, !tbaa !64
  br label %18

18:                                               ; preds = %15, %17, %14, %10
  %.0 = phi i32 [ -1, %10 ], [ -1, %14 ], [ 0, %17 ], [ -1, %15 ]
  call void @llvm.lifetime.end.p0(i64 8, ptr nonnull %6) #29
  ret i32 %.0
}